target datalayout = "e-m:e-p270:32:32-p271:32:32-p272:64:64-i64:64-i128:128-f80:128-n8:16:32:64-S128"
target triple = "x86_64-pc-linux-gnu"

%struct.pm_location_t = type { ptr, ptr }
%struct.pm_node_list = type { i64, i64, ptr }
%struct.pm_node = type { i16, i16, i32, %struct.pm_location_t }
%struct.pm_array_node = type { %struct.pm_node, %struct.pm_node_list, %struct.pm_location_t, %struct.pm_location_t }
%struct.pm_assoc_node = type { %struct.pm_node, ptr, ptr, %struct.pm_location_t }
%struct.pm_hash_node = type { %struct.pm_node, %struct.pm_location_t, %struct.pm_node_list, %struct.pm_location_t }

; Function Attrs: nounwind sspstrong uwtable
define internal zeroext i1 @pm_conditional_predicate_warn_write_literal_p(ptr noundef %0) #0 {
  %2 = alloca i1, align 1
  %3 = alloca ptr, align 8
  %4 = alloca ptr, align 8
  %5 = alloca i64, align 8
  %6 = alloca i32, align 4
  %7 = alloca ptr, align 8
  %8 = alloca i64, align 8
  %9 = alloca ptr, align 8
  %10 = alloca ptr, align 8
  store ptr %0, ptr %3, align 8, !tbaa !128
  %11 = load ptr, ptr %3, align 8, !tbaa !128
  %12 = getelementptr inbounds nuw %struct.pm_node, ptr %11, i32 0, i32 0
  %13 = load i16, ptr %12, align 8, !tbaa !206
  %14 = zext i16 %13 to i32
  switch i32 %14, label %108 [
    i32 6, label %15
    i32 65, label %51
    i32 51, label %107
    i32 54, label %107
    i32 68, label %107
    i32 82, label %107
    i32 108, label %107
    i32 123, label %107
    i32 125, label %107
    i32 136, label %107
    i32 137, label %107
    i32 138, label %107
    i32 141, label %107
    i32 143, label %107
    i32 144, label %107
  ]

15:                                               ; preds = %1
  %16 = load ptr, ptr %3, align 8, !tbaa !128
  %17 = getelementptr inbounds nuw %struct.pm_node, ptr %16, i32 0, i32 1
  %18 = load i16, ptr %17, align 2, !tbaa !222
  %19 = zext i16 %18 to i32
  %20 = and i32 %19, 2
  %21 = icmp ne i32 %20, 0
  br i1 %21, label %22, label %23

22:                                               ; preds = %15
  store i1 true, ptr %2, align 1
  br label %109

23:                                               ; preds = %15
  call void @llvm.lifetime.start.p0(i64 8, ptr %4) #15
  %24 = load ptr, ptr %3, align 8, !tbaa !128
  store ptr %24, ptr %4, align 8, !tbaa !338
  call void @llvm.lifetime.start.p0(i64 8, ptr %5) #15
  store i64 0, ptr %5, align 8, !tbaa !14
  br label %25

25:                                               ; preds = %44, %23
  %26 = load i64, ptr %5, align 8, !tbaa !14
  %27 = load ptr, ptr %4, align 8, !tbaa !338
  %28 = getelementptr inbounds nuw %struct.pm_array_node, ptr %27, i32 0, i32 1
  %29 = getelementptr inbounds nuw %struct.pm_node_list, ptr %28, i32 0, i32 0
  %30 = load i64, ptr %29, align 8, !tbaa !340
  %31 = icmp ult i64 %26, %30
  br i1 %31, label %33, label %32

32:                                               ; preds = %25
  store i32 3, ptr %6, align 4
  br label %47

33:                                               ; preds = %25
  %34 = load ptr, ptr %4, align 8, !tbaa !338
  %35 = getelementptr inbounds nuw %struct.pm_array_node, ptr %34, i32 0, i32 1
  %36 = getelementptr inbounds nuw %struct.pm_node_list, ptr %35, i32 0, i32 2
  %37 = load ptr, ptr %36, align 8, !tbaa !998
  %38 = load i64, ptr %5, align 8, !tbaa !14
  %39 = getelementptr ptr, ptr %37, i64 %38
  %40 = load ptr, ptr %39, align 8, !tbaa !128
  %41 = call zeroext i1 @pm_conditional_predicate_warn_write_literal_p(ptr noundef %40)
  br i1 %41, label %43, label %42

42:                                               ; preds = %33
  store i1 false, ptr %2, align 1
  store i32 1, ptr %6, align 4
  br label %47

43:                                               ; preds = %33
  br label %44

44:                                               ; preds = %43
  %45 = load i64, ptr %5, align 8, !tbaa !14
  %46 = add i64 %45, 1
  store i64 %46, ptr %5, align 8, !tbaa !14
  br label %25, !llvm.loop !999

47:                                               ; preds = %42, %32
  call void @llvm.lifetime.end.p0(i64 8, ptr %5) #15
  %48 = load i32, ptr %6, align 4
  switch i32 %48, label %50 [
    i32 3, label %49
  ]

49:                                               ; preds = %47
  store i1 true, ptr %2, align 1
  store i32 1, ptr %6, align 4
  br label %50

50:                                               ; preds = %49, %47
  call void @llvm.lifetime.end.p0(i64 8, ptr %4) #15
  br label %109

51:                                               ; preds = %1
  %52 = load ptr, ptr %3, align 8, !tbaa !128
  %53 = getelementptr inbounds nuw %struct.pm_node, ptr %52, i32 0, i32 1
  %54 = load i16, ptr %53, align 2, !tbaa !222
  %55 = zext i16 %54 to i32
  %56 = and i32 %55, 2
  %57 = icmp ne i32 %56, 0
  br i1 %57, label %58, label %59

58:                                               ; preds = %51
  store i1 true, ptr %2, align 1
  br label %109

59:                                               ; preds = %51
  call void @llvm.lifetime.start.p0(i64 8, ptr %7) #15
  %60 = load ptr, ptr %3, align 8, !tbaa !128
  store ptr %60, ptr %7, align 8, !tbaa !353
  call void @llvm.lifetime.start.p0(i64 8, ptr %8) #15
  store i64 0, ptr %8, align 8, !tbaa !14
  br label %61

61:                                               ; preds = %100, %59
  %62 = load i64, ptr %8, align 8, !tbaa !14
  %63 = load ptr, ptr %7, align 8, !tbaa !353
  %64 = getelementptr inbounds nuw %struct.pm_hash_node, ptr %63, i32 0, i32 2
  %65 = getelementptr inbounds nuw %struct.pm_node_list, ptr %64, i32 0, i32 0
  %66 = load i64, ptr %65, align 8, !tbaa !1000
  %67 = icmp ult i64 %62, %66
  br i1 %67, label %69, label %68

68:                                               ; preds = %61
  store i32 6, ptr %6, align 4
  br label %103

69:                                               ; preds = %61
  call void @llvm.lifetime.start.p0(i64 8, ptr %9) #15
  %70 = load ptr, ptr %7, align 8, !tbaa !353
  %71 = getelementptr inbounds nuw %struct.pm_hash_node, ptr %70, i32 0, i32 2
  %72 = getelementptr inbounds nuw %struct.pm_node_list, ptr %71, i32 0, i32 2
  %73 = load ptr, ptr %72, align 8, !tbaa !1001
  %74 = load i64, ptr %8, align 8, !tbaa !14
  %75 = getelementptr ptr, ptr %73, i64 %74
  %76 = load ptr, ptr %75, align 8, !tbaa !128
  store ptr %76, ptr %9, align 8, !tbaa !128
  %77 = load ptr, ptr %9, align 8, !tbaa !128
  %78 = getelementptr inbounds nuw %struct.pm_node, ptr %77, i32 0, i32 0
  %79 = load i16, ptr %78, align 8, !tbaa !206
  %80 = zext i16 %79 to i32
  %81 = icmp eq i32 %80, 8
  br i1 %81, label %83, label %82

82:                                               ; preds = %69
  store i1 false, ptr %2, align 1
  store i32 1, ptr %6, align 4
  br label %97

83:                                               ; preds = %69
  call void @llvm.lifetime.start.p0(i64 8, ptr %10) #15
  %84 = load ptr, ptr %9, align 8, !tbaa !128
  store ptr %84, ptr %10, align 8, !tbaa !460
  %85 = load ptr, ptr %10, align 8, !tbaa !460
  %86 = getelementptr inbounds nuw %struct.pm_assoc_node, ptr %85, i32 0, i32 1
  %87 = load ptr, ptr %86, align 8, !tbaa !462
  %88 = call zeroext i1 @pm_conditional_predicate_warn_write_literal_p(ptr noundef %87)
  br i1 %88, label %89, label %94

89:                                               ; preds = %83
  %90 = load ptr, ptr %10, align 8, !tbaa !460
  %91 = getelementptr inbounds nuw %struct.pm_assoc_node, ptr %90, i32 0, i32 2
  %92 = load ptr, ptr %91, align 8, !tbaa !464
  %93 = call zeroext i1 @pm_conditional_predicate_warn_write_literal_p(ptr noundef %92)
  br i1 %93, label %95, label %94

94:                                               ; preds = %89, %83
  store i1 false, ptr %2, align 1
  store i32 1, ptr %6, align 4
  br label %96

95:                                               ; preds = %89
  store i32 0, ptr %6, align 4
  br label %96

96:                                               ; preds = %95, %94
  call void @llvm.lifetime.end.p0(i64 8, ptr %10) #15
  br label %97

97:                                               ; preds = %96, %82
  call void @llvm.lifetime.end.p0(i64 8, ptr %9) #15
  %98 = load i32, ptr %6, align 4
  switch i32 %98, label %103 [
    i32 0, label %99
  ]

99:                                               ; preds = %97
  br label %100

100:                                              ; preds = %99
  %101 = load i64, ptr %8, align 8, !tbaa !14
  %102 = add i64 %101, 1
  store i64 %102, ptr %8, align 8, !tbaa !14
  br label %61, !llvm.loop !1002

103:                                              ; preds = %97, %68
  call void @llvm.lifetime.end.p0(i64 8, ptr %8) #15
  %104 = load i32, ptr %6, align 4
  switch i32 %104, label %106 [
    i32 6, label %105
  ]

105:                                              ; preds = %103
  store i1 true, ptr %2, align 1
  store i32 1, ptr %6, align 4
  br label %106

106:                                              ; preds = %105, %103
  call void @llvm.lifetime.end.p0(i64 8, ptr %7) #15
  br label %109

107:                                              ; preds = %1, %1, %1, %1, %1, %1, %1, %1, %1, %1, %1, %1, %1
  store i1 true, ptr %2, align 1
  br label %109

108:                                              ; preds = %1
  store i1 false, ptr %2, align 1
  br label %109

109:                                              ; preds = %108, %107, %106, %58, %50, %22
  %110 = load i1, ptr %2, align 1
  ret i1 %110
}