; Function Attrs: nofree nosync nounwind sspstrong memory(read, inaccessiblemem: none) uwtable
define internal fastcc noundef zeroext i1 @pm_conditional_predicate_warn_write_literal_p(ptr noundef readonly captures(none) %0) unnamed_addr #26 {
  %2 = load i16, ptr %0, align 8, !tbaa !113
  switch i16 %2, label %39 [
    i16 6, label %3
    i16 65, label %16
    i16 51, label %.critedge
    i16 54, label %.critedge
    i16 68, label %.critedge
    i16 82, label %.critedge
    i16 108, label %.critedge
    i16 123, label %.critedge
    i16 125, label %.critedge
    i16 136, label %.critedge
    i16 137, label %.critedge
    i16 138, label %.critedge
    i16 141, label %.critedge
    i16 143, label %.critedge
    i16 144, label %.critedge
  ]

3:                                                ; preds = %1
  %4 = getelementptr inbounds nuw i8, ptr %0, i64 2
  %5 = load i16, ptr %4, align 2, !tbaa !114
  %6 = and i16 %5, 2
  %.not31 = icmp eq i16 %6, 0
  br i1 %.not31, label %.preheader, label %.critedge

.preheader:                                       ; preds = %3
  %7 = getelementptr inbounds nuw i8, ptr %0, i64 24
  %8 = load i64, ptr %7, align 8, !tbaa !287
  %.not32.not47.not = icmp eq i64 %8, 0
  br i1 %.not32.not47.not, label %.critedge, label %.lr.ph49

.lr.ph49:                                         ; preds = %.preheader
  %9 = getelementptr inbounds nuw i8, ptr %0, i64 40
  %10 = load ptr, ptr %9, align 8, !tbaa !653
  br label %11

11:                                               ; preds = %11, %.lr.ph49
  %.02448 = phi i64 [ 0, %.lr.ph49 ], [ %15, %11 ]
  %12 = getelementptr ptr, ptr %10, i64 %.02448
  %13 = load ptr, ptr %12, align 8, !tbaa !103
  %14 = tail call fastcc zeroext i1 @pm_conditional_predicate_warn_write_literal_p(ptr noundef %13)
  %15 = add nuw i64 %.02448, 1
  %exitcond55.not = icmp ne i64 %15, %8
  %or.cond.not = select i1 %14, i1 %exitcond55.not, i1 false
  br i1 %or.cond.not, label %11, label %.critedge, !llvm.loop !654

16:                                               ; preds = %1
  %17 = getelementptr inbounds nuw i8, ptr %0, i64 2
  %18 = load i16, ptr %17, align 2, !tbaa !114
  %19 = and i16 %18, 2
  %.not = icmp eq i16 %19, 0
  br i1 %.not, label %.preheader36, label %.critedge

.preheader36:                                     ; preds = %16
  %20 = getelementptr inbounds nuw i8, ptr %0, i64 40
  %21 = load i64, ptr %20, align 8, !tbaa !655
  %.not30.not39.not = icmp eq i64 %21, 0
  br i1 %.not30.not39.not, label %.critedge, label %.lr.ph

.lr.ph:                                           ; preds = %.preheader36
  %22 = getelementptr inbounds nuw i8, ptr %0, i64 56
  %23 = load ptr, ptr %22, align 8, !tbaa !656
  br label %26

24:                                               ; preds = %35
  %25 = add nuw i64 %.02540, 1
  %exitcond.not = icmp eq i64 %25, %21
  br i1 %exitcond.not, label %.critedge, label %26, !llvm.loop !657

26:                                               ; preds = %.lr.ph, %24
  %.02540 = phi i64 [ 0, %.lr.ph ], [ %25, %24 ]
  %27 = getelementptr ptr, ptr %23, i64 %.02540
  %28 = load ptr, ptr %27, align 8, !tbaa !103
  %29 = load i16, ptr %28, align 8, !tbaa !113
  %30 = icmp eq i16 %29, 8
  br i1 %30, label %31, label %.critedge

31:                                               ; preds = %26
  %32 = getelementptr inbounds nuw i8, ptr %28, i64 24
  %33 = load ptr, ptr %32, align 8, !tbaa !127
  %34 = tail call fastcc zeroext i1 @pm_conditional_predicate_warn_write_literal_p(ptr noundef %33)
  br i1 %34, label %35, label %.critedge

35:                                               ; preds = %31
  %36 = getelementptr inbounds nuw i8, ptr %28, i64 32
  %37 = load ptr, ptr %36, align 8, !tbaa !658
  %38 = tail call fastcc zeroext i1 @pm_conditional_predicate_warn_write_literal_p(ptr noundef %37)
  br i1 %38, label %24, label %.critedge

39:                                               ; preds = %1
  br label %.critedge

.critedge:                                        ; preds = %26, %35, %31, %24, %11, %.preheader36, %.preheader, %1, %1, %1, %1, %1, %1, %1, %1, %1, %1, %1, %1, %1, %16, %3, %39
  %.0 = phi i1 [ false, %39 ], [ true, %3 ], [ true, %16 ], [ true, %1 ], [ true, %1 ], [ true, %1 ], [ true, %1 ], [ true, %1 ], [ true, %1 ], [ true, %1 ], [ true, %1 ], [ true, %1 ], [ true, %1 ], [ true, %1 ], [ true, %1 ], [ true, %1 ], [ true, %.preheader ], [ true, %.preheader36 ], [ %14, %11 ], [ false, %26 ], [ false, %35 ], [ false, %31 ], [ true, %24 ]
  ret i1 %.0
}